target datalayout = "e-m:e-p270:32:32-p271:32:32-p272:64:64-i64:64-i128:128-f80:128-n8:16:32:64-S128"
target triple = "x86_64-pc-linux-gnu"

; Function Attrs: nounwind sspstrong uwtable
define internal i32 @key_i(i64 noundef %0, i64 noundef %1, i64 noundef %2) #0 {
  %4 = alloca i32, align 4
  %5 = alloca i64, align 8
  %6 = alloca i64, align 8
  %7 = alloca i64, align 8
  %8 = alloca ptr, align 8
  %9 = alloca i32, align 4
  store i64 %0, ptr %5, align 8, !tbaa !7
  store i64 %1, ptr %6, align 8, !tbaa !7
  store i64 %2, ptr %7, align 8, !tbaa !7
  call void @llvm.lifetime.start.p0(i64 8, ptr %8) #28
  %10 = load i64, ptr %7, align 8, !tbaa !7
  %11 = inttoptr i64 %10 to ptr
  store ptr %11, ptr %8, align 8, !tbaa !11
  %12 = load i64, ptr %6, align 8, !tbaa !7
  %13 = load ptr, ptr %8, align 8, !tbaa !11
  %14 = getelementptr i64, ptr %13, i64 0
  %15 = load i64, ptr %14, align 8, !tbaa !7
  %16 = call i64 @rb_equal(i64 noundef %12, i64 noundef %15)
  %17 = icmp ne i64 %16, 0
  br i1 %17, label %18, label %22

18:                                               ; preds = %3
  %19 = load i64, ptr %5, align 8, !tbaa !7
  %20 = load ptr, ptr %8, align 8, !tbaa !11
  %21 = getelementptr i64, ptr %20, i64 1
  store i64 %19, ptr %21, align 8, !tbaa !7
  store i32 1, ptr %4, align 4
  store i32 1, ptr %9, align 4
  br label %23

22:                                               ; preds = %3
  store i32 0, ptr %4, align 4
  store i32 1, ptr %9, align 4
  br label %23

23:                                               ; preds = %22, %18
  call void @llvm.lifetime.end.p0(i64 8, ptr %8) #28
  %24 = load i32, ptr %4, align 4
  ret i32 %24
}