; Function Attrs: nounwind sspstrong uwtable
define internal range(i32 0, 2) i32 @key_i(i64 noundef %0, i64 noundef %1, i64 noundef %2) #0 {
  %4 = inttoptr i64 %2 to ptr
  %5 = load i64, ptr %4, align 8, !tbaa !7
  %6 = tail call i64 @rb_equal(i64 noundef %1, i64 noundef %5) #28
  %.not = icmp eq i64 %6, 0
  br i1 %.not, label %9, label %7

7:                                                ; preds = %3
  %8 = getelementptr i8, ptr %4, i64 8
  store i64 %0, ptr %8, align 8, !tbaa !7
  br label %9

9:                                                ; preds = %3, %7
  %.0 = phi i32 [ 1, %7 ], [ 0, %3 ]
  ret i32 %.0
}